target datalayout = "e-m:e-p270:32:32-p271:32:32-p272:64:64-i64:64-i128:128-f80:128-n8:16:32:64-S128"
target triple = "x86_64-pc-linux-gnu"

%"class.ozz::io::Stream" = type { ptr }
%"class.ozz::io::MemoryStream" = type { %"class.ozz::io::Stream", ptr, i64, i32, i32 }

; Function Attrs: mustprogress nounwind uwtable
define dso_local noundef i32 @_ZN3ozz2io12MemoryStream4SeekEiNS0_6Stream6OriginE(ptr noundef nonnull align 8 dereferenceable(32) %0, i32 noundef %1, i32 noundef %2) unnamed_addr #3 align 2 {
  %4 = alloca i32, align 4
  %5 = alloca ptr, align 8
  %6 = alloca i32, align 4
  %7 = alloca i32, align 4
  %8 = alloca i32, align 4
  %9 = alloca i32, align 4
  store ptr %0, ptr %5, align 8, !tbaa !27
  store i32 %1, ptr %6, align 4, !tbaa !23
  store i32 %2, ptr %7, align 4, !tbaa !25
  %10 = load ptr, ptr %5, align 8
  call void @llvm.lifetime.start.p0(i64 4, ptr %8) #10
  %11 = load i32, ptr %7, align 4, !tbaa !25
  switch i32 %11, label %19 [
    i32 0, label %12
    i32 1, label %15
    i32 2, label %18
  ]

12:                                               ; preds = %3
  %13 = getelementptr inbounds nuw %"class.ozz::io::MemoryStream", ptr %10, i32 0, i32 4
  %14 = load i32, ptr %13, align 4, !tbaa !33
  store i32 %14, ptr %8, align 4, !tbaa !23
  br label %20

15:                                               ; preds = %3
  %16 = getelementptr inbounds nuw %"class.ozz::io::MemoryStream", ptr %10, i32 0, i32 3
  %17 = load i32, ptr %16, align 8, !tbaa !32
  store i32 %17, ptr %8, align 4, !tbaa !23
  br label %20

18:                                               ; preds = %3
  store i32 0, ptr %8, align 4, !tbaa !23
  br label %20

19:                                               ; preds = %3
  store i32 -1, ptr %4, align 4
  store i32 1, ptr %9, align 4
  br label %39

20:                                               ; preds = %18, %15, %12
  %21 = load i32, ptr %8, align 4, !tbaa !23
  %22 = load i32, ptr %6, align 4, !tbaa !23
  %23 = sub nsw i32 0, %22
  %24 = icmp slt i32 %21, %23
  br i1 %24, label %33, label %25

25:                                               ; preds = %20
  %26 = load i32, ptr %6, align 4, !tbaa !23
  %27 = icmp sgt i32 %26, 0
  br i1 %27, label %28, label %34

28:                                               ; preds = %25
  %29 = load i32, ptr %8, align 4, !tbaa !23
  %30 = load i32, ptr %6, align 4, !tbaa !23
  %31 = sub nsw i32 2147483647, %30
  %32 = icmp sgt i32 %29, %31
  br i1 %32, label %33, label %34

33:                                               ; preds = %28, %20
  store i32 -1, ptr %4, align 4
  store i32 1, ptr %9, align 4
  br label %39

34:                                               ; preds = %28, %25
  %35 = load i32, ptr %8, align 4, !tbaa !23
  %36 = load i32, ptr %6, align 4, !tbaa !23
  %37 = add nsw i32 %35, %36
  %38 = getelementptr inbounds nuw %"class.ozz::io::MemoryStream", ptr %10, i32 0, i32 4
  store i32 %37, ptr %38, align 4, !tbaa !33
  store i32 0, ptr %4, align 4
  store i32 1, ptr %9, align 4
  br label %39

39:                                               ; preds = %34, %33, %19
  call void @llvm.lifetime.end.p0(i64 4, ptr %8) #10
  %40 = load i32, ptr %4, align 4
  ret i32 %40
}