; Function Attrs: mustprogress nofree norecurse nosync nounwind willreturn memory(argmem: readwrite) uwtable
define dso_local noundef range(i32 -1, 1) i32 @_ZN3ozz2io12MemoryStream4SeekEiNS0_6Stream6OriginE(ptr noundef nonnull align 8 captures(none) dereferenceable(32) %0, i32 noundef %1, i32 noundef %2) unnamed_addr #14 align 2 {
  switch i32 %2, label %20 [
    i32 0, label %4
    i32 1, label %7
    i32 2, label %10
  ]

4:                                                ; preds = %3
  %5 = getelementptr inbounds nuw i8, ptr %0, i64 28
  %6 = load i32, ptr %5, align 4, !tbaa !18
  br label %10

7:                                                ; preds = %3
  %8 = getelementptr inbounds nuw i8, ptr %0, i64 24
  %9 = load i32, ptr %8, align 8, !tbaa !19
  br label %10

10:                                               ; preds = %3, %7, %4
  %.0 = phi i32 [ %9, %7 ], [ %6, %4 ], [ 0, %3 ]
  %11 = sub nsw i32 0, %1
  %12 = icmp slt i32 %.0, %11
  br i1 %12, label %20, label %13

13:                                               ; preds = %10
  %14 = icmp sgt i32 %1, 0
  %15 = sub nuw nsw i32 2147483647, %1
  %16 = icmp sgt i32 %.0, %15
  %or.cond = select i1 %14, i1 %16, i1 false
  br i1 %or.cond, label %20, label %17

17:                                               ; preds = %13
  %18 = add nsw i32 %.0, %1
  %19 = getelementptr inbounds nuw i8, ptr %0, i64 28
  store i32 %18, ptr %19, align 4, !tbaa !18
  br label %20

20:                                               ; preds = %10, %13, %3, %17
  %.09 = phi i32 [ 0, %17 ], [ -1, %3 ], [ -1, %13 ], [ -1, %10 ]
  ret i32 %.09
}